(lp0
(lp1
F89.9523809523809
aF19.6770833333333
aa(lp2
F69.6153846153846
aF30.0
aa(lp3
F82.1
aF25.3917525773196
aa(lp4
F52.9540229885057
aF22.8069306930693
aa(lp5
F59.2264150943396
aF25.9421487603306
aa(lp6
F73.8588235294118
aF21.7231833910035
aa(lp7
F64.7931034482759
aF25.7397260273973
aa(lp8
F56.3440860215054
aF28.4782608695652
aa(lp9
F60.5232558139535
aF25.5147058823529
aa(lp10
F74.8955223880597
aF28.3502824858757
aa(lp11
F80.3246753246753
aF25.5578512396694
aa(lp12
F65.8941176470588
aF20.7444444444444
aa(lp13
F51.4838709677419
aF28.6706586826347
aa(lp14
F51.7204301075269
aF23.6945812807882
aa(lp15
F60.0147058823529
aF22.5469613259669
aa(lp16
F81.5769230769231
aF7.11744966442953
aa(lp17
F60.0104166666667
aF31.828729281768
aa(lp18
F69.5581395348837
aF29.91
aa(lp19
F59.1473684210526
aF28.2361809045226
aa(lp20
F92.8701298701299
aF34.052380952381
aa(lp21
F63.0430107526882
aF21.6346863468635
aa(lp22
F55.4782608695652
aF21.1784232365145
aa(lp23
F84.6901408450704
aF33.2209944751381
aa(lp24
F62.9789473684211
aF23.7420634920635
aa(lp25
F63.021978021978
aF27.7053140096618
aa(lp26
F47.5806451612903
aF17.2178988326848
aa(lp27
F61.298969072165
aF27.9154929577465
aa(lp28
F37.0
aF15.8571428571429
aa(lp29
F58.554347826087
aF22.1687242798354
aa(lp30
F139.877551020408
aF21.8977635782748
aa(lp31
F84.3150684931507
aF26.0805084745763
aa(lp32
F56.7578947368421
aF26.4313725490196
aa(lp33
F76.6516853932584
aF32.4857142857143
aa(lp34
F68.5432098765432
aF25.4678899082569
aa(lp35
F65.6263736263736
aF30.469387755102
aa(lp36
F272.210526315789
aF84.7868852459016
aa(lp37
F355.2
aF77.2173913043478
aa(lp38
F287.666666666667
aF68.1315789473684
aa(lp39
F228.85
aF61.8513513513514
aa(lp40
F305.764705882353
aF69.3066666666667
aa(lp41
F469.0
aF90.5087719298246
aa(lp42
F166.1
aF54.1630434782609
aa(lp43
F191.458333333333
aF70.6923076923077
aa(lp44
F401.076923076923
aF102.235294117647
aa(lp45
F289.611111111111
aF71.4109589041096
aa(lp46
F432.0
aF74.0571428571429
aa(lp47
F429.583333333333
aF87.3728813559322
aa(lp48
F202.375
aF69.3857142857143
aa(lp49
F271.578947368421
aF80.625
aa(lp50
F433.75
aF83.9516129032258
aa(lp51
F231.727272727273
aF79.65625
aa(lp52
F377.5
aF73.4027777777778
aa(lp53
F219.380952380952
aF83.7636363636364
aa(lp54
F220.428571428571
aF66.1285714285714
aa(lp55
F165.677419354839
aF61.1428571428571
aa(lp56
F263.411764705882
aF59.7066666666667
aa(lp57
F235.045454545455
aF68.9466666666667
aa(lp58
F210.772727272727
aF74.7903225806452
aa(lp59
F422.166666666667
aF84.4333333333333
aa(lp60
F296.466666666667
aF80.8545454545455
aa(lp61
F408.076923076923
aF72.6712328767123
aa(lp62
F463.727272727273
aF80.968253968254
aa(lp63
F270.684210526316
aF73.4714285714286
aa(lp64
F419.333333333333
aF82.4918032786885
aa(lp65
F277.941176470588
aF75.0
aa(lp66
F229.666666666667
aF66.9861111111111
aa(lp67
F377.928571428571
aF72.4794520547945
aa(lp68
F351.666666666667
aF97.6851851851852
aa(lp69
F469.818181818182
aF84.7213114754098
aa(lp70
F454.428571428571
aF81.5641025641026
aa(lp71
F232.980392156863
aF91.4
aa(lp72
F512.444444444444
aF153.733333333333
aa(lp73
F496.590909090909
aF141.883116883117
aa(lp74
F387.75
aF106.965517241379
aa(lp75
F197.626865671642
aF91.3172413793103
aa(lp76
F513.407407407407
aF114.561983471074
aa(lp77
F558.72
aF113.560975609756
aa(lp78
F389.714285714286
aF101.037037037037
aa(lp79
F412.086956521739
aF131.638888888889
aa(lp80
F329.702702702703
aF138.625
aa(lp81
F435.357142857143
aF141.744186046512
aa(lp82
F380.333333333333
aF95.0833333333333
aa(lp83
F671.777777777778
aF147.463414634146
aa(lp84
F703.684210526316
aF140.736842105263
aa(lp85
F579.809523809524
aF169.111111111111
aa(lp86
F215.214285714286
aF96.416
aa(lp87
F619.315789473684
aF156.893333333333
aa(lp88
F463.903225806452
aF99.1793103448276
aa(lp89
F764.368421052632
aF146.69696969697
aa(lp90
F401.133333333333
aF146.756097560976
aa(lp91
F552.461538461538
aF97.054054054054
aa(lp92
F345.333333333333
aF90.0869565217391
aa(lp93
F336.0
aF126.792452830189
aa(lp94
F524.909090909091
aF144.35
aa(lp95
F214.923076923077
aF67.3253012048193
aa(lp96
F310.444444444444
aF76.3387978142077
aa(lp97
F457.733333333333
aF120.456140350877
aa(lp98
F455.785714285714
aF108.152542372881
aa(lp99
F448.12
aF117.926315789474
aa(lp100
F563.192307692308
aF149.418367346939
aa(lp101
F537.125
aF127.633663366337
aa(lp102
F445.576923076923
aF113.578431372549
aa(lp103
F526.740740740741
aF110.248062015504
aa(lp104
F444.066666666667
aF151.386363636364
aa(lp105
F407.642857142857
aF95.1166666666667
aa(lp106
F34.4444444444444
aF10.1639344262295
aa(lp107
F39.5714285714286
aF11.7515151515152
aa(lp108
F34.64
aF8.13145539906103
aa(lp109
F24.9838709677419
aF8.28342245989305
aa(lp110
F32.42
aF10.1949685534591
aa(lp111
F41.0204081632653
aF12.1818181818182
aa(lp112
F35.1489361702128
aF9.22905027932961
aa(lp113
F34.74
aF9.92571428571429
aa(lp114
F76.7692307692308
aF21.2340425531915
aa(lp115
F29.7321428571429
aF9.97005988023952
aa(lp116
F31.0408163265306
aF8.89473684210526
aa(lp117
F37.6730769230769
aF11.5917159763314
aa(lp118
F33.9622641509434
aF10.1694915254237
aa(lp119
F23.0188679245283
aF8.18791946308725
aa(lp120
F38.0625
aF11.6369426751592
aa(lp121
F36.1521739130435
aF10.4591194968553
aa(lp122
F37.6666666666667
aF9.82608695652174
aa(lp123
F42.7272727272727
aF12.7891156462585
aa(lp124
F47.390243902439
aF14.719696969697
aa(lp125
F44.5434782608696
aF13.1346153846154
aa(lp126
F37.4791666666667
aF11.7581699346405
aa(lp127
F30.9038461538462
aF11.3169014084507
aa(lp128
F36.7659574468085
aF10.4096385542169
aa(lp129
F39.6938775510204
aF11.1142857142857
aa(lp130
F37.5681818181818
aF9.89820359281437
aa(lp131
F40.3260869565217
aF13.25
aa(lp132
F45.5714285714286
aF12.8456375838926
aa(lp133
F32.5454545454545
aF9.88950276243094
aa(lp134
F37.74
aF11.1656804733728
aa(lp135
F46.0851063829787
aF11.5212765957447
aa(lp136
F52.9230769230769
aF16.6451612903226
aa(lp137
F51.875
aF11.5921787709497
aa(lp138
F31.1914893617021
aF9.1055900621118
aa(lp139
F38.9545454545455
aF11.2763157894737
aa(lp140
F28.5744680851064
aF7.7183908045977
aa.