(lp0
VAhmetHakan
p1
aVAhmetHakan
p2
aVAhmetHakan
p3
aVAhmetHakan
p4
aVAhmetHakan
p5
aVAhmetHakan
p6
aVAhmetHakan
p7
aVAhmetHakan
p8
aVAhmetHakan
p9
aVAhmetHakan
p10
aVAhmetHakan
p11
aVAhmetHakan
p12
aVAhmetHakan
p13
aVAhmetHakan
p14
aVAhmetHakan
p15
aVAhmetHakan
p16
aVAhmetHakan
p17
aVAhmetHakan
p18
aVAhmetHakan
p19
aVAhmetHakan
p20
aVAhmetHakan
p21
aVAhmetHakan
p22
aVAhmetHakan
p23
aVAhmetHakan
p24
aVAhmetHakan
p25
aVAhmetHakan
p26
aVAhmetHakan
p27
aVAhmetHakan
p28
aVAhmetHakan
p29
aVAhmetHakan
p30
aVAhmetHakan
p31
aVAhmetHakan
p32
aVAhmetHakan
p33
aVAhmetHakan
p34
aVAhmetHakan
p35
aVCuneytOzdemir
p36
aVCuneytOzdemir
p37
aVCuneytOzdemir
p38
aVCuneytOzdemir
p39
aVCuneytOzdemir
p40
aVCuneytOzdemir
p41
aVCuneytOzdemir
p42
aVCuneytOzdemir
p43
aVCuneytOzdemir
p44
aVCuneytOzdemir
p45
aVCuneytOzdemir
p46
aVCuneytOzdemir
p47
aVCuneytOzdemir
p48
aVCuneytOzdemir
p49
aVCuneytOzdemir
p50
aVCuneytOzdemir
p51
aVCuneytOzdemir
p52
aVCuneytOzdemir
p53
aVCuneytOzdemir
p54
aVCuneytOzdemir
p55
aVCuneytOzdemir
p56
aVCuneytOzdemir
p57
aVCuneytOzdemir
p58
aVCuneytOzdemir
p59
aVCuneytOzdemir
p60
aVCuneytOzdemir
p61
aVCuneytOzdemir
p62
aVCuneytOzdemir
p63
aVCuneytOzdemir
p64
aVCuneytOzdemir
p65
aVCuneytOzdemir
p66
aVCuneytOzdemir
p67
aVCuneytOzdemir
p68
aVCuneytOzdemir
p69
aVCuneytOzdemir
p70
aVYaseminCongar
p71
aVYaseminCongar
p72
aVYaseminCongar
p73
aVYaseminCongar
p74
aVYaseminCongar
p75
aVYaseminCongar
p76
aVYaseminCongar
p77
aVYaseminCongar
p78
aVYaseminCongar
p79
aVYaseminCongar
p80
aVYaseminCongar
p81
aVYaseminCongar
p82
aVYaseminCongar
p83
aVYaseminCongar
p84
aVYaseminCongar
p85
aVYaseminCongar
p86
aVYaseminCongar
p87
aVYaseminCongar
p88
aVYaseminCongar
p89
aVYaseminCongar
p90
aVYaseminCongar
p91
aVYaseminCongar
p92
aVYaseminCongar
p93
aVYaseminCongar
p94
aVYaseminCongar
p95
aVYaseminCongar
p96
aVYaseminCongar
p97
aVYaseminCongar
p98
aVYaseminCongar
p99
aVYaseminCongar
p100
aVYaseminCongar
p101
aVYaseminCongar
p102
aVYaseminCongar
p103
aVYaseminCongar
p104
aVYaseminCongar
p105
aVBekirCoskun
p106
aVBekirCoskun
p107
aVBekirCoskun
p108
aVBekirCoskun
p109
aVBekirCoskun
p110
aVBekirCoskun
p111
aVBekirCoskun
p112
aVBekirCoskun
p113
aVBekirCoskun
p114
aVBekirCoskun
p115
aVBekirCoskun
p116
aVBekirCoskun
p117
aVBekirCoskun
p118
aVBekirCoskun
p119
aVBekirCoskun
p120
aVBekirCoskun
p121
aVBekirCoskun
p122
aVBekirCoskun
p123
aVBekirCoskun
p124
aVBekirCoskun
p125
aVBekirCoskun
p126
aVBekirCoskun
p127
aVBekirCoskun
p128
aVBekirCoskun
p129
aVBekirCoskun
p130
aVBekirCoskun
p131
aVBekirCoskun
p132
aVBekirCoskun
p133
aVBekirCoskun
p134
aVBekirCoskun
p135
aVBekirCoskun
p136
aVBekirCoskun
p137
aVBekirCoskun
p138
aVBekirCoskun
p139
aVBekirCoskun
p140
a.